; Function Attrs: nounwind uwtable
define internal i64 @BlockingGetStreamWriteAvailable(ptr nocapture noundef readonly %0) #0 {
  %2 = alloca %struct.pollfd, align 4
  %3 = getelementptr inbounds nuw i8, ptr %0, i64 384
  %4 = load ptr, ptr %3, align 8
  %5 = call i32 @sio_pollfd(ptr noundef %4, ptr noundef nonnull %2, i32 noundef 4) #16
  %6 = sext i32 %5 to i64
  br label %7

7:                                                ; preds = %10, %1
  %8 = call i32 @poll(ptr noundef nonnull %2, i64 noundef %6, i32 noundef 0) #16
  %9 = icmp slt i32 %8, 0
  br i1 %9, label %10, label %15

10:                                               ; preds = %7
  %11 = tail call ptr @__errno_location() #18
  %12 = load i32, ptr %11, align 4
  %13 = icmp eq i32 %12, 4
  br i1 %13, label %7, label %14, !llvm.loop !11

14:                                               ; preds = %10
  call void @perror(ptr noundef nonnull @.str.4) #19
  call void @abort() #20
  unreachable

15:                                               ; preds = %7
  %16 = load ptr, ptr %3, align 8
  %17 = call i32 @sio_revents(ptr noundef %16, ptr noundef nonnull %2) #16
  %18 = and i32 %17, 4
  %.not = icmp eq i32 %18, 0
  br i1 %.not, label %28, label %19

19:                                               ; preds = %15
  %20 = getelementptr inbounds i8, ptr %0, i64 424
  %21 = load i32, ptr %20, align 8
  %22 = zext i32 %21 to i64
  %23 = getelementptr inbounds nuw i8, ptr %0, i64 504
  %24 = load i64, ptr %23, align 8
  %25 = getelementptr inbounds nuw i8, ptr %0, i64 472
  %26 = load i64, ptr %25, align 8
  %.neg = sub i64 %22, %24
  %27 = add i64 %.neg, %26
  br label %28

28:                                               ; preds = %15, %19
  %.0 = phi i64 [ %27, %19 ], [ 0, %15 ]
  ret i64 %.0
}